target datalayout = "e-m:e-p270:32:32-p271:32:32-p272:64:64-i64:64-i128:128-f80:128-n8:16:32:64-S128"
target triple = "x86_64-unknown-linux-gnu"

%"struct.std::_Rb_tree_key_compare" = type { %"struct.std::less" }
%"struct.std::less" = type { i8 }
%"struct.std::_Rb_tree_header" = type { %"struct.std::_Rb_tree_node_base", i64 }
%"struct.std::_Rb_tree_node_base" = type { i32, ptr, ptr, ptr }
%"class.Imf_3_2::Header" = type <{ %"class.std::map", i8, [7 x i8] }>
%"class.std::map" = type { %"class.std::_Rb_tree" }
%"class.std::_Rb_tree" = type { %"struct.std::_Rb_tree<Imf_3_2::Name, std::pair<const Imf_3_2::Name, Imf_3_2::Attribute *>, std::_Select1st<std::pair<const Imf_3_2::Name, Imf_3_2::Attribute *>>, std::less<Imf_3_2::Name>>::_Rb_tree_impl" }
%"struct.std::_Rb_tree<Imf_3_2::Name, std::pair<const Imf_3_2::Name, Imf_3_2::Attribute *>, std::_Select1st<std::pair<const Imf_3_2::Name, Imf_3_2::Attribute *>>, std::less<Imf_3_2::Name>>::_Rb_tree_impl" = type { %"struct.std::_Rb_tree_key_compare", %"struct.std::_Rb_tree_header" }
%"class.Imf_3_2::RgbaOutputFile" = type { ptr, ptr, ptr }

@_ZTVN7Imf_3_214RgbaOutputFileE = unnamed_addr constant { [4 x ptr] } { [4 x ptr] [ptr null, ptr @_ZTIN7Imf_3_214RgbaOutputFileE, ptr @_ZN7Imf_3_214RgbaOutputFileD1Ev, ptr @_ZN7Imf_3_214RgbaOutputFileD0Ev] }, align 8
@_ZN7Imf_3_214RgbaOutputFile5ToYcaC1ERNS_10OutputFileENS_12RgbaChannelsE = hidden unnamed_addr alias void (ptr, ptr, i32), ptr @_ZN7Imf_3_214RgbaOutputFile5ToYcaC2ERNS_10OutputFileENS_12RgbaChannelsE

; Function Attrs: mustprogress uwtable
define void @_ZN7Imf_3_214RgbaOutputFileC2EPKcRKNS_6HeaderENS_12RgbaChannelsEi(ptr noundef nonnull align 8 dereferenceable(24) %this, ptr noundef %name, ptr noundef nonnull align 8 dereferenceable(49) %header, i32 noundef %rgbaChannels, i32 noundef %numThreads) unnamed_addr #4 align 2 personality ptr @__gxx_personality_v0 {
entry:
  %this.addr = alloca ptr, align 8
  %name.addr = alloca ptr, align 8
  %header.addr = alloca ptr, align 8
  %rgbaChannels.addr = alloca i32, align 4
  %numThreads.addr = alloca i32, align 4
  %hd = alloca %"class.Imf_3_2::Header", align 8
  %exn.slot = alloca ptr, align 8
  %ehselector.slot = alloca i32, align 4
  store ptr %this, ptr %this.addr, align 8
  store ptr %name, ptr %name.addr, align 8
  store ptr %header, ptr %header.addr, align 8
  store i32 %rgbaChannels, ptr %rgbaChannels.addr, align 4
  store i32 %numThreads, ptr %numThreads.addr, align 4
  %this1 = load ptr, ptr %this.addr, align 8
  store ptr getelementptr inbounds ({ [4 x ptr] }, ptr @_ZTVN7Imf_3_214RgbaOutputFileE, i32 0, i32 0, i32 2), ptr %this1, align 8
  %_outputFile = getelementptr inbounds %"class.Imf_3_2::RgbaOutputFile", ptr %this1, i32 0, i32 1
  store ptr null, ptr %_outputFile, align 8
  %_toYca = getelementptr inbounds %"class.Imf_3_2::RgbaOutputFile", ptr %this1, i32 0, i32 2
  store ptr null, ptr %_toYca, align 8
  %0 = load ptr, ptr %header.addr, align 8
  call void @_ZN7Imf_3_26HeaderC1ERKS0_(ptr noundef nonnull align 8 dereferenceable(49) %hd, ptr noundef nonnull align 8 dereferenceable(49) %0)
  %1 = load i32, ptr %rgbaChannels.addr, align 4
  invoke void @_ZN7Imf_3_212_GLOBAL__N_114insertChannelsERNS_6HeaderENS_12RgbaChannelsE(ptr noundef nonnull align 8 dereferenceable(49) %hd, i32 noundef %1)
          to label %invoke.cont unwind label %lpad

invoke.cont:                                      ; preds = %entry
  %call = invoke noalias noundef nonnull ptr @_Znwm(i64 noundef 16) #13
          to label %invoke.cont2 unwind label %lpad

invoke.cont2:                                     ; preds = %invoke.cont
  %2 = load ptr, ptr %name.addr, align 8
  %3 = load i32, ptr %numThreads.addr, align 4
  invoke void @_ZN7Imf_3_210OutputFileC1EPKcRKNS_6HeaderEi(ptr noundef nonnull align 8 dereferenceable(16) %call, ptr noundef %2, ptr noundef nonnull align 8 dereferenceable(49) %hd, i32 noundef %3)
          to label %invoke.cont4 unwind label %lpad3

invoke.cont4:                                     ; preds = %invoke.cont2
  %_outputFile5 = getelementptr inbounds %"class.Imf_3_2::RgbaOutputFile", ptr %this1, i32 0, i32 1
  store ptr %call, ptr %_outputFile5, align 8
  %4 = load i32, ptr %rgbaChannels.addr, align 4
  %and = and i32 %4, 48
  %tobool = icmp ne i32 %and, 0
  br i1 %tobool, label %if.then, label %if.end

if.then:                                          ; preds = %invoke.cont4
  %call7 = invoke noalias noundef nonnull ptr @_Znwm(i64 noundef 352) #13
          to label %invoke.cont6 unwind label %lpad

invoke.cont6:                                     ; preds = %if.then
  %_outputFile8 = getelementptr inbounds %"class.Imf_3_2::RgbaOutputFile", ptr %this1, i32 0, i32 1
  %5 = load ptr, ptr %_outputFile8, align 8
  %6 = load i32, ptr %rgbaChannels.addr, align 4
  invoke void @_ZN7Imf_3_214RgbaOutputFile5ToYcaC1ERNS_10OutputFileENS_12RgbaChannelsE(ptr noundef nonnull align 8 dereferenceable(352) %call7, ptr noundef nonnull align 8 dereferenceable(16) %5, i32 noundef %6)
          to label %invoke.cont10 unwind label %lpad9

invoke.cont10:                                    ; preds = %invoke.cont6
  %_toYca11 = getelementptr inbounds %"class.Imf_3_2::RgbaOutputFile", ptr %this1, i32 0, i32 2
  store ptr %call7, ptr %_toYca11, align 8
  br label %if.end

lpad:                                             ; preds = %if.then, %invoke.cont, %entry
  %7 = landingpad { ptr, i32 }
          cleanup
  %8 = extractvalue { ptr, i32 } %7, 0
  store ptr %8, ptr %exn.slot, align 8
  %9 = extractvalue { ptr, i32 } %7, 1
  store i32 %9, ptr %ehselector.slot, align 4
  br label %ehcleanup

lpad3:                                            ; preds = %invoke.cont2
  %10 = landingpad { ptr, i32 }
          cleanup
  %11 = extractvalue { ptr, i32 } %10, 0
  store ptr %11, ptr %exn.slot, align 8
  %12 = extractvalue { ptr, i32 } %10, 1
  store i32 %12, ptr %ehselector.slot, align 4
  call void @_ZdlPv(ptr noundef %call) #14
  br label %ehcleanup

lpad9:                                            ; preds = %invoke.cont6
  %13 = landingpad { ptr, i32 }
          cleanup
  %14 = extractvalue { ptr, i32 } %13, 0
  store ptr %14, ptr %exn.slot, align 8
  %15 = extractvalue { ptr, i32 } %13, 1
  store i32 %15, ptr %ehselector.slot, align 4
  call void @_ZdlPv(ptr noundef %call7) #14
  br label %ehcleanup

if.end:                                           ; preds = %invoke.cont10, %invoke.cont4
  call void @_ZN7Imf_3_26HeaderD1Ev(ptr noundef nonnull align 8 dereferenceable(49) %hd) #3
  ret void

ehcleanup:                                        ; preds = %lpad9, %lpad3, %lpad
  call void @_ZN7Imf_3_26HeaderD1Ev(ptr noundef nonnull align 8 dereferenceable(49) %hd) #3
  br label %eh.resume

eh.resume:                                        ; preds = %ehcleanup
  %exn = load ptr, ptr %exn.slot, align 8
  %sel = load i32, ptr %ehselector.slot, align 4
  %lpad.val = insertvalue { ptr, i32 } poison, ptr %exn, 0
  %lpad.val12 = insertvalue { ptr, i32 } %lpad.val, i32 %sel, 1
  resume { ptr, i32 } %lpad.val12
}